; Function Attrs: noreturn nounwind sspstrong uwtable
define hidden void @rb_method_name_error(i64 noundef %0, i64 noundef %1) local_unnamed_addr #9 {
  %3 = icmp eq i64 %0, 0
  %4 = and i64 %0, 7
  %5 = icmp ne i64 %4, 0
  %6 = or i1 %3, %5
  br i1 %6, label %.thread14, label %rbimpl_RB_TYPE_P_fastpath.exit.i

rbimpl_RB_TYPE_P_fastpath.exit.i:                 ; preds = %2
  %7 = inttoptr i64 %0 to ptr
  %8 = load i64, ptr %7, align 8, !tbaa !42
  %9 = and i64 %8, 8223
  %or.cond = icmp eq i64 %9, 8194
  br i1 %or.cond, label %10, label %rbimpl_RB_TYPE_P_fastpath.exit

10:                                               ; preds = %rbimpl_RB_TYPE_P_fastpath.exit.i
  %11 = getelementptr inbounds nuw i8, ptr %7, i64 128
  %12 = load i64, ptr %11, align 8, !tbaa !35
  %13 = inttoptr i64 %12 to ptr
  %14 = load i64, ptr %13, align 8, !tbaa !42
  %15 = and i64 %14, 30
  %switch = icmp eq i64 %15, 2
  %spec.select = select i1 %switch, i64 %12, i64 %0
  br label %.thread14

rbimpl_RB_TYPE_P_fastpath.exit:                   ; preds = %rbimpl_RB_TYPE_P_fastpath.exit.i
  %16 = and i64 %8, 31
  %17 = icmp eq i64 %16, 3
  br i1 %17, label %18, label %.thread14

18:                                               ; preds = %rbimpl_RB_TYPE_P_fastpath.exit
  %19 = tail call i64 @rb_fstring_new(ptr noundef nonnull @.str.13, i64 noundef 41) #21
  %20 = icmp eq i64 %19, 36
  br i1 %20, label %.thread14, label %22

.thread14:                                        ; preds = %2, %rbimpl_RB_TYPE_P_fastpath.exit, %10, %18
  %.118 = phi i64 [ %0, %18 ], [ %0, %rbimpl_RB_TYPE_P_fastpath.exit ], [ %spec.select, %10 ], [ %0, %2 ]
  %21 = tail call i64 @rb_fstring_new(ptr noundef nonnull @.str.14, i64 noundef 40) #21
  br label %22

22:                                               ; preds = %.thread14, %18
  %.117 = phi i64 [ %.118, %.thread14 ], [ %0, %18 ]
  %.111 = phi i64 [ %21, %.thread14 ], [ %19, %18 ]
  tail call fastcc void @rb_name_err_raise_str(i64 noundef %.111, i64 noundef %.117, i64 noundef %1) #25
  unreachable
}